; Function Attrs: mustprogress uwtable
define hidden void @_ZN19OpenColorIO_v2_4dev20GenericGpuShaderDescC2Ev(ptr noundef nonnull align 8 dereferenceable(24) %this) unnamed_addr #3 align 2 personality ptr @__gxx_personality_v0 {
entry:
  tail call void @_ZN19OpenColorIO_v2_4dev13GpuShaderDescC2Ev(ptr noundef nonnull align 8 dereferenceable(16) %this)
  store ptr getelementptr inbounds ({ [34 x ptr] }, ptr @_ZTVN19OpenColorIO_v2_4dev20GenericGpuShaderDescE, i64 0, i32 0, i64 2), ptr %this, align 8
  %call = invoke noalias noundef nonnull dereferenceable(88) ptr @_Znwm(i64 noundef 88) #20
          to label %invoke.cont3 unwind label %lpad

invoke.cont3:                                     ; preds = %entry
  %m_textures.i.i = getelementptr inbounds i8, ptr %call, i64 8
  %m_max1DLUTWidth.i.i = getelementptr inbounds i8, ptr %call, i64 80
  tail call void @llvm.memset.p0.i64(ptr noundef nonnull align 8 dereferenceable(72) %m_textures.i.i, i8 0, i64 72, i1 false)
  store i32 4096, ptr %m_max1DLUTWidth.i.i, align 8
  %m_allowTexture1D.i.i = getelementptr inbounds i8, ptr %call, i64 84
  store i8 1, ptr %m_allowTexture1D.i.i, align 4
  store ptr getelementptr inbounds ({ [4 x ptr] }, ptr @_ZTVN19OpenColorIO_v2_4dev20GenericGpuShaderDesc11ImplGenericE, i64 0, i32 0, i64 2), ptr %call, align 8
  %m_implGeneric = getelementptr inbounds i8, ptr %this, i64 16
  store ptr %call, ptr %m_implGeneric, align 8
  ret void

lpad:                                             ; preds = %entry
  %0 = landingpad { ptr, i32 }
          cleanup
  tail call void @_ZN19OpenColorIO_v2_4dev13GpuShaderDescD2Ev(ptr noundef nonnull align 8 dereferenceable(16) %this) #21
  resume { ptr, i32 } %0
}